; Function Attrs: nounwind uwtable
define internal void @logerror(ptr noundef readonly captures(none) %0, ...) unnamed_addr #0 {
  %2 = alloca [1 x %struct.__va_list_tag], align 16
  call void @llvm.lifetime.start.p0(i64 24, ptr nonnull %2) #21
  call void @llvm.va_start.p0(ptr nonnull %2)
  call fastcc void @logreport(i32 noundef 3, ptr noundef %0, ptr noundef nonnull %2)
  call void @llvm.va_end.p0(ptr nonnull %2)
  call void @llvm.lifetime.end.p0(i64 24, ptr nonnull %2) #21
  ret void
}